target datalayout = "e-m:e-p270:32:32-p271:32:32-p272:64:64-i64:64-i128:128-f80:128-n8:16:32:64-S128"
target triple = "x86_64-pc-linux-gnu"

%struct.Gia_Man_t_ = type { ptr, ptr, i32, i32, i32, i32, ptr, ptr, i32, i32, i32, ptr, ptr, %struct.Vec_Int_t_, %struct.Vec_Int_t_, i32, i32, i32, %struct.Vec_Int_t_, ptr, ptr, ptr, i32, i32, i32, i32, ptr, ptr, ptr, ptr, ptr, i32, i32, ptr, i32, ptr, ptr, ptr, ptr, ptr, ptr, ptr, ptr, ptr, ptr, ptr, ptr, ptr, ptr, ptr, ptr, ptr, ptr, %struct.Vec_Int_t_, %struct.Vec_Int_t_, ptr, ptr, ptr, ptr, ptr, ptr, ptr, ptr, ptr, ptr, ptr, ptr, ptr, ptr, ptr, ptr, ptr, ptr, ptr, ptr, ptr, i32, float, float, ptr, ptr, i32, ptr, ptr, ptr, ptr, ptr, ptr, ptr, ptr, ptr, ptr, ptr, ptr, ptr, ptr, ptr, i64, i64, ptr, ptr, i32, i32, i32, i32, i32, i32, i32, i32, i32, i32, i32, i32, ptr, ptr, ptr, ptr, ptr, ptr, ptr, ptr, i32, i32, i32, ptr, i32, i32, ptr, ptr, ptr, ptr, ptr, ptr, i32, i32, ptr, %struct.Vec_Int_t_, %struct.Vec_Int_t_, %struct.Vec_Int_t_, ptr, ptr, ptr }
%struct.Vec_Int_t_ = type { i32, i32, ptr }
%struct.Jf_Par_t_ = type { i32, i32, i32, i32, i32, i32, i32, i32, i32, i32, i32, i32, i32, i32, i32, i32, i32, i32, i32, i32, i32, i32, i32, i32, i32, i32, i32, i32, i32, i32, i32, i32, i32, i32, i32, i32, i32, i32, i32, i32, i64, i64, i64, i64, i64, i64, i64, i64, i32, float, float, float, float, ptr, ptr }

; Function Attrs: nounwind uwtable
define internal i32 @Vec_IntSize(ptr noundef %0) #0 {
  %2 = alloca ptr, align 8
  store ptr %0, ptr %2, align 8
  %3 = load ptr, ptr %2, align 8
  %4 = getelementptr inbounds %struct.Vec_Int_t_, ptr %3, i32 0, i32 1
  %5 = load i32, ptr %4, align 4
  ret i32 %5
}

; Function Attrs: nounwind uwtable
define internal i32 @Gia_ManAndNum(ptr noundef %0) #0 {
  %2 = alloca ptr, align 8
  store ptr %0, ptr %2, align 8
  %3 = load ptr, ptr %2, align 8
  %4 = getelementptr inbounds %struct.Gia_Man_t_, ptr %3, i32 0, i32 4
  %5 = load i32, ptr %4, align 8
  %6 = load ptr, ptr %2, align 8
  %7 = getelementptr inbounds %struct.Gia_Man_t_, ptr %6, i32 0, i32 11
  %8 = load ptr, ptr %7, align 8
  %9 = call i32 @Vec_IntSize(ptr noundef %8)
  %10 = sub nsw i32 %5, %9
  %11 = load ptr, ptr %2, align 8
  %12 = getelementptr inbounds %struct.Gia_Man_t_, ptr %11, i32 0, i32 12
  %13 = load ptr, ptr %12, align 8
  %14 = call i32 @Vec_IntSize(ptr noundef %13)
  %15 = sub nsw i32 %10, %14
  %16 = sub nsw i32 %15, 1
  ret i32 %16
}

; Function Attrs: nounwind uwtable
define ptr @Gia_ManAigSyn4(ptr noundef %0, i32 noundef %1, i32 noundef %2) #0 {
  %4 = alloca ptr, align 8
  %5 = alloca ptr, align 8
  %6 = alloca i32, align 4
  %7 = alloca i32, align 4
  %8 = alloca ptr, align 8
  %9 = alloca ptr, align 8
  %10 = alloca %struct.Jf_Par_t_, align 8
  %11 = alloca ptr, align 8
  store ptr %0, ptr %5, align 8
  store i32 %1, ptr %6, align 4
  store i32 %2, ptr %7, align 4
  store ptr %10, ptr %11, align 8
  %12 = load ptr, ptr %11, align 8
  call void @Jf_ManSetDefaultPars(ptr noundef %12)
  %13 = load ptr, ptr %11, align 8
  %14 = getelementptr inbounds %struct.Jf_Par_t_, ptr %13, i32 0, i32 5
  store i32 40, ptr %14, align 4
  %15 = load i32, ptr %6, align 4
  %16 = icmp ne i32 %15, 0
  br i1 %16, label %17, label %19

17:                                               ; preds = %3
  %18 = load ptr, ptr %5, align 8
  call void @Gia_ManPrintStats(ptr noundef %18, ptr noundef null)
  br label %19

19:                                               ; preds = %17, %3
  %20 = load ptr, ptr %5, align 8
  %21 = call i32 @Gia_ManAndNum(ptr noundef %20)
  %22 = icmp eq i32 %21, 0
  br i1 %22, label %23, label %29

23:                                               ; preds = %19
  %24 = load ptr, ptr %5, align 8
  %25 = call ptr @Gia_ManDup(ptr noundef %24)
  store ptr %25, ptr %8, align 8
  %26 = load ptr, ptr %8, align 8
  %27 = load ptr, ptr %5, align 8
  call void @Gia_ManTransferTiming(ptr noundef %26, ptr noundef %27)
  %28 = load ptr, ptr %8, align 8
  store ptr %28, ptr %4, align 8
  br label %95

29:                                               ; preds = %19
  %30 = load ptr, ptr %5, align 8
  %31 = load i32, ptr %7, align 4
  %32 = call ptr @Gia_ManAreaBalance(ptr noundef %30, i32 noundef 0, i32 noundef 1000000000, i32 noundef %31, i32 noundef 0)
  store ptr %32, ptr %8, align 8
  %33 = load i32, ptr %6, align 4
  %34 = icmp ne i32 %33, 0
  br i1 %34, label %35, label %37

35:                                               ; preds = %29
  %36 = load ptr, ptr %8, align 8
  call void @Gia_ManPrintStats(ptr noundef %36, ptr noundef null)
  br label %37

37:                                               ; preds = %35, %29
  %38 = load ptr, ptr %11, align 8
  %39 = getelementptr inbounds %struct.Jf_Par_t_, ptr %38, i32 0, i32 0
  store i32 7, ptr %39, align 8
  %40 = load ptr, ptr %8, align 8
  store ptr %40, ptr %9, align 8
  %41 = load ptr, ptr %11, align 8
  %42 = call ptr @Jf_ManPerformMapping(ptr noundef %40, ptr noundef %41)
  store ptr %42, ptr %8, align 8
  %43 = load i32, ptr %6, align 4
  %44 = icmp ne i32 %43, 0
  br i1 %44, label %45, label %47

45:                                               ; preds = %37
  %46 = load ptr, ptr %8, align 8
  call void @Gia_ManPrintStats(ptr noundef %46, ptr noundef null)
  br label %47

47:                                               ; preds = %45, %37
  %48 = load ptr, ptr %8, align 8
  store ptr %48, ptr %9, align 8
  %49 = load i32, ptr %7, align 4
  %50 = call ptr @Gia_ManPerformFx(ptr noundef %48, i32 noundef 1000000000, i32 noundef 0, i32 noundef 0, i32 noundef %49, i32 noundef 0)
  store ptr %50, ptr %8, align 8
  %51 = load i32, ptr %6, align 4
  %52 = icmp ne i32 %51, 0
  br i1 %52, label %53, label %55

53:                                               ; preds = %47
  %54 = load ptr, ptr %8, align 8
  call void @Gia_ManPrintStats(ptr noundef %54, ptr noundef null)
  br label %55

55:                                               ; preds = %53, %47
  %56 = load ptr, ptr %9, align 8
  call void @Gia_ManStop(ptr noundef %56)
  %57 = load ptr, ptr %8, align 8
  store ptr %57, ptr %9, align 8
  %58 = load i32, ptr %7, align 4
  %59 = call ptr @Gia_ManAreaBalance(ptr noundef %57, i32 noundef 0, i32 noundef 1000000000, i32 noundef %58, i32 noundef 0)
  store ptr %59, ptr %8, align 8
  %60 = load i32, ptr %6, align 4
  %61 = icmp ne i32 %60, 0
  br i1 %61, label %62, label %64

62:                                               ; preds = %55
  %63 = load ptr, ptr %8, align 8
  call void @Gia_ManPrintStats(ptr noundef %63, ptr noundef null)
  br label %64

64:                                               ; preds = %62, %55
  %65 = load ptr, ptr %9, align 8
  call void @Gia_ManStop(ptr noundef %65)
  %66 = load ptr, ptr %11, align 8
  %67 = getelementptr inbounds %struct.Jf_Par_t_, ptr %66, i32 0, i32 0
  store i32 5, ptr %67, align 8
  %68 = load ptr, ptr %8, align 8
  store ptr %68, ptr %9, align 8
  %69 = load ptr, ptr %11, align 8
  %70 = call ptr @Jf_ManPerformMapping(ptr noundef %68, ptr noundef %69)
  store ptr %70, ptr %8, align 8
  %71 = load i32, ptr %6, align 4
  %72 = icmp ne i32 %71, 0
  br i1 %72, label %73, label %75

73:                                               ; preds = %64
  %74 = load ptr, ptr %8, align 8
  call void @Gia_ManPrintStats(ptr noundef %74, ptr noundef null)
  br label %75

75:                                               ; preds = %73, %64
  %76 = load ptr, ptr %8, align 8
  store ptr %76, ptr %9, align 8
  %77 = load i32, ptr %7, align 4
  %78 = call ptr @Gia_ManPerformFx(ptr noundef %76, i32 noundef 1000000000, i32 noundef 0, i32 noundef 0, i32 noundef %77, i32 noundef 0)
  store ptr %78, ptr %8, align 8
  %79 = load i32, ptr %6, align 4
  %80 = icmp ne i32 %79, 0
  br i1 %80, label %81, label %83

81:                                               ; preds = %75
  %82 = load ptr, ptr %8, align 8
  call void @Gia_ManPrintStats(ptr noundef %82, ptr noundef null)
  br label %83

83:                                               ; preds = %81, %75
  %84 = load ptr, ptr %9, align 8
  call void @Gia_ManStop(ptr noundef %84)
  %85 = load ptr, ptr %8, align 8
  store ptr %85, ptr %9, align 8
  %86 = load i32, ptr %7, align 4
  %87 = call ptr @Gia_ManAreaBalance(ptr noundef %85, i32 noundef 0, i32 noundef 1000000000, i32 noundef %86, i32 noundef 0)
  store ptr %87, ptr %8, align 8
  %88 = load i32, ptr %6, align 4
  %89 = icmp ne i32 %88, 0
  br i1 %89, label %90, label %92

90:                                               ; preds = %83
  %91 = load ptr, ptr %8, align 8
  call void @Gia_ManPrintStats(ptr noundef %91, ptr noundef null)
  br label %92

92:                                               ; preds = %90, %83
  %93 = load ptr, ptr %9, align 8
  call void @Gia_ManStop(ptr noundef %93)
  %94 = load ptr, ptr %8, align 8
  store ptr %94, ptr %4, align 8
  br label %95

95:                                               ; preds = %92, %23
  %96 = load ptr, ptr %4, align 8
  ret ptr %96
}